target datalayout = "e-m:e-p270:32:32-p271:32:32-p272:64:64-i64:64-i128:128-f80:128-n8:16:32:64-S128"
target triple = "x86_64-unknown-linux-gnu"

; Function Attrs: mustprogress uwtable
define noundef double @_ZNK8QuantLib21AnalyticBarrierEngine2muEv(ptr noundef nonnull align 8 dereferenceable(440) %this) #2 align 2 {
entry:
  %this.addr = alloca ptr, align 8
  %vol = alloca double, align 8
  store ptr %this, ptr %this.addr, align 8, !tbaa !3
  %this1 = load ptr, ptr %this.addr, align 8
  call void @llvm.lifetime.start.p0(i64 8, ptr %vol) #13
  %call = call noundef double @_ZNK8QuantLib21AnalyticBarrierEngine10volatilityEv(ptr noundef nonnull align 8 dereferenceable(440) %this1)
  store double %call, ptr %vol, align 8, !tbaa !16
  %call2 = call noundef double @_ZNK8QuantLib21AnalyticBarrierEngine12riskFreeRateEv(ptr noundef nonnull align 8 dereferenceable(440) %this1)
  %call3 = call noundef double @_ZNK8QuantLib21AnalyticBarrierEngine13dividendYieldEv(ptr noundef nonnull align 8 dereferenceable(440) %this1)
  %sub = fsub double %call2, %call3
  %0 = load double, ptr %vol, align 8, !tbaa !16
  %1 = load double, ptr %vol, align 8, !tbaa !16
  %mul = fmul double %0, %1
  %div = fdiv double %sub, %mul
  %sub4 = fsub double %div, 5.000000e-01
  call void @llvm.lifetime.end.p0(i64 8, ptr %vol) #13
  ret double %sub4
}

; Function Attrs: mustprogress uwtable
define noundef double @_ZNK8QuantLib21AnalyticBarrierEngine7muSigmaEv(ptr noundef nonnull align 8 dereferenceable(440) %this) #2 align 2 {
entry:
  %this.addr = alloca ptr, align 8
  store ptr %this, ptr %this.addr, align 8, !tbaa !3
  %this1 = load ptr, ptr %this.addr, align 8
  %call = call noundef double @_ZNK8QuantLib21AnalyticBarrierEngine2muEv(ptr noundef nonnull align 8 dereferenceable(440) %this1)
  %add = fadd double 1.000000e+00, %call
  %call2 = call noundef double @_ZNK8QuantLib21AnalyticBarrierEngine12stdDeviationEv(ptr noundef nonnull align 8 dereferenceable(440) %this1)
  %mul = fmul double %add, %call2
  ret double %mul
}